; Function Attrs: mustprogress uwtable
define void @_ZN2cv9HuMomentsERKNS_7MomentsERKNS_12_OutputArrayE(ptr nocapture noundef nonnull readonly align 8 dereferenceable(192) %0, ptr noundef nonnull align 8 dereferenceable(24) %1) local_unnamed_addr #2 personality ptr @__gxx_personality_v0 {
  %3 = alloca %"class.cv::utils::trace::details::Region", align 8
  %4 = alloca %"class.cv::Mat", align 8
  %5 = alloca %"class.std::__cxx11::basic_string", align 8
  %6 = alloca %"class.std::allocator", align 1
  call void @_ZN2cv5utils5trace7details6RegionC1ERKNS3_21LocationStaticStorageE(ptr noundef nonnull align 8 dereferenceable(12) %3, ptr noundef nonnull align 8 dereferenceable(32) @_ZZN2cv9HuMomentsERKNS_7MomentsERKNS_12_OutputArrayEE25__cv_trace_location_fn740)
  invoke void @_ZNK2cv12_OutputArray6createEiiiibNS0_9DepthMaskE(ptr noundef nonnull align 8 dereferenceable(24) %1, i32 noundef 7, i32 noundef 1, i32 noundef 6, i32 noundef -1, i1 noundef zeroext false, i32 noundef 0)
          to label %7 unwind label %16

7:                                                ; preds = %2
  %8 = invoke noundef i32 @_ZNK2cv11_InputArray4kindEv(ptr noundef nonnull align 8 dereferenceable(24) %1)
          to label %.noexc unwind label %16

.noexc:                                           ; preds = %7
  %9 = icmp eq i32 %8, 65536
  br i1 %9, label %10, label %13

10:                                               ; preds = %.noexc
  %11 = getelementptr inbounds i8, ptr %1, i64 8
  %12 = load ptr, ptr %11, align 8, !noalias !28
  invoke void @_ZN2cv3MatC1ERKS0_(ptr noundef nonnull align 8 dereferenceable(96) %4, ptr noundef nonnull align 8 dereferenceable(96) %12)
          to label %_ZNK2cv11_InputArray6getMatEi.exit unwind label %16

13:                                               ; preds = %.noexc
  invoke void @_ZNK2cv11_InputArray7getMat_Ei(ptr dead_on_unwind nonnull writable sret(%"class.cv::Mat") align 8 %4, ptr noundef nonnull align 8 dereferenceable(24) %1, i32 noundef -1)
          to label %_ZNK2cv11_InputArray6getMatEi.exit unwind label %16

_ZNK2cv11_InputArray6getMatEi.exit:               ; preds = %10, %13
  %14 = load i32, ptr %4, align 8
  %15 = and i32 %14, 16384
  %.not = icmp eq i32 %15, 0
  br i1 %.not, label %20, label %28

16:                                               ; preds = %13, %10, %7, %2
  %17 = landingpad { ptr, i32 }
          cleanup
  br label %39

18:                                               ; preds = %28
  %19 = landingpad { ptr, i32 }
          cleanup
  br label %38

20:                                               ; preds = %_ZNK2cv11_InputArray6getMatEi.exit
  call void @_ZNSaIcEC1Ev(ptr noundef nonnull align 1 dereferenceable(1) %6) #15
  invoke void @_ZNSt7__cxx1112basic_stringIcSt11char_traitsIcESaIcEEC1EPKcRKS3_(ptr noundef nonnull align 8 dereferenceable(32) %5, ptr noundef nonnull @.str.6, ptr noundef nonnull align 1 dereferenceable(1) %6)
          to label %21 unwind label %23

21:                                               ; preds = %20
  invoke void @_ZN2cv5errorEiRKNSt7__cxx1112basic_stringIcSt11char_traitsIcESaIcEEEPKcS9_i(i32 noundef -215, ptr noundef nonnull align 8 dereferenceable(32) %5, ptr noundef nonnull @__func__._ZN2cv9HuMomentsERKNS_7MomentsERKNS_12_OutputArrayE, ptr noundef nonnull @.str.1, i32 noundef 744) #16
          to label %22 unwind label %25

22:                                               ; preds = %21
  unreachable

23:                                               ; preds = %20
  %24 = landingpad { ptr, i32 }
          cleanup
  br label %27

25:                                               ; preds = %21
  %26 = landingpad { ptr, i32 }
          cleanup
  call void @_ZNSt7__cxx1112basic_stringIcSt11char_traitsIcESaIcEED1Ev(ptr noundef nonnull align 8 dereferenceable(32) %5) #15
  br label %27

27:                                               ; preds = %25, %23
  %.pn = phi { ptr, i32 } [ %26, %25 ], [ %24, %23 ]
  call void @_ZNSaIcED1Ev(ptr noundef nonnull align 1 dereferenceable(1) %6) #15
  br label %38

28:                                               ; preds = %_ZNK2cv11_InputArray6getMatEi.exit
  %29 = getelementptr inbounds i8, ptr %4, i64 16
  %30 = load ptr, ptr %29, align 8
  invoke void @_ZN2cv9HuMomentsERKNS_7MomentsEPd(ptr noundef nonnull align 8 dereferenceable(192) %0, ptr noundef %30)
          to label %31 unwind label %18

31:                                               ; preds = %28
  call void @_ZN2cv3MatD1Ev(ptr noundef nonnull align 8 dereferenceable(96) %4) #15
  %32 = getelementptr inbounds i8, ptr %3, i64 8
  %33 = load i32, ptr %32, align 8
  %.not.i = icmp eq i32 %33, 0
  br i1 %.not.i, label %_ZN2cv5utils5trace7details6RegionD2Ev.exit, label %34

34:                                               ; preds = %31
  invoke void @_ZN2cv5utils5trace7details6Region7destroyEv(ptr noundef nonnull align 8 dereferenceable(12) %3)
          to label %_ZN2cv5utils5trace7details6RegionD2Ev.exit unwind label %35

35:                                               ; preds = %34
  %36 = landingpad { ptr, i32 }
          catch ptr null
  %37 = extractvalue { ptr, i32 } %36, 0
  call void @__clang_call_terminate(ptr %37) #14
  unreachable

_ZN2cv5utils5trace7details6RegionD2Ev.exit:       ; preds = %31, %34
  ret void

38:                                               ; preds = %27, %18
  %.pn8 = phi { ptr, i32 } [ %19, %18 ], [ %.pn, %27 ]
  call void @_ZN2cv3MatD1Ev(ptr noundef nonnull align 8 dereferenceable(96) %4) #15
  br label %39

39:                                               ; preds = %38, %16
  %.pn8.pn = phi { ptr, i32 } [ %.pn8, %38 ], [ %17, %16 ]
  call void @_ZN2cv5utils5trace7details6RegionD2Ev(ptr noundef nonnull align 8 dereferenceable(12) %3) #15
  resume { ptr, i32 } %.pn8.pn
}